; Function Attrs: nounwind uwtable
define range(i32 0, 2) i32 @ssl_clear_bad_session(ptr noundef %0) local_unnamed_addr #3 {
  %2 = getelementptr inbounds nuw i8, ptr %0, i64 2304
  %3 = load ptr, ptr %2, align 8, !tbaa !17
  %.not = icmp eq ptr %3, null
  br i1 %.not, label %17, label %4

4:                                                ; preds = %1
  %5 = getelementptr inbounds nuw i8, ptr %0, i64 132
  %6 = load i32, ptr %5, align 4, !tbaa !153
  %7 = and i32 %6, 1
  %.not6 = icmp eq i32 %7, 0
  br i1 %.not6, label %8, label %17

8:                                                ; preds = %4
  %9 = tail call i32 @SSL_in_init(ptr noundef nonnull %0) #11
  %.not7 = icmp eq i32 %9, 0
  br i1 %.not7, label %10, label %17

10:                                               ; preds = %8
  %11 = tail call i32 @SSL_in_before(ptr noundef nonnull %0) #11
  %.not8 = icmp eq i32 %11, 0
  br i1 %.not8, label %12, label %17

12:                                               ; preds = %10
  %13 = getelementptr inbounds nuw i8, ptr %0, i64 2952
  %14 = load ptr, ptr %13, align 8, !tbaa !98
  %15 = load ptr, ptr %2, align 8, !tbaa !17
  %16 = tail call fastcc range(i32 0, 2) i32 @remove_session_lock(ptr noundef %14, ptr noundef %15, i32 noundef 1)
  br label %17

17:                                               ; preds = %1, %4, %8, %10, %12
  %.0 = phi i32 [ 1, %12 ], [ 0, %10 ], [ 0, %8 ], [ 0, %4 ], [ 0, %1 ]
  ret i32 %.0
}